; Function Attrs: mustprogress uwtable
define noundef zeroext i1 @_ZN32pxrInternal_v0_24__pxrReserved__18UsdNamespaceEditor10DeletePrimERKNS_7UsdPrimE(ptr noundef nonnull align 8 dereferenceable(200) %0, ptr noundef nonnull align 8 dereferenceable(32) %1) local_unnamed_addr #0 align 2 {
  %3 = getelementptr inbounds nuw i8, ptr %1, i64 16
  %4 = load i32, ptr %3, align 8
  %.not.i.i = icmp eq i32 %4, 0
  br i1 %.not.i.i, label %5, label %_ZNK32pxrInternal_v0_24__pxrReserved__9UsdObject11GetPrimPathEv.exit

5:                                                ; preds = %2
  %6 = getelementptr inbounds nuw i8, ptr %1, i64 8
  %7 = load ptr, ptr %6, align 8
  %.not.i = icmp eq ptr %7, null
  br i1 %.not.i, label %10, label %8

8:                                                ; preds = %5
  %9 = getelementptr inbounds nuw i8, ptr %7, i64 16
  br label %_ZNK32pxrInternal_v0_24__pxrReserved__9UsdObject11GetPrimPathEv.exit

10:                                               ; preds = %5
  %11 = tail call noundef nonnull align 4 dereferenceable(8) ptr @_ZN32pxrInternal_v0_24__pxrReserved__7SdfPath9EmptyPathEv()
  br label %_ZNK32pxrInternal_v0_24__pxrReserved__9UsdObject11GetPrimPathEv.exit

_ZNK32pxrInternal_v0_24__pxrReserved__9UsdObject11GetPrimPathEv.exit: ; preds = %2, %8, %10
  %.0.i = phi ptr [ %9, %8 ], [ %11, %10 ], [ %3, %2 ]
  %12 = tail call noundef zeroext i1 @_ZN32pxrInternal_v0_24__pxrReserved__18UsdNamespaceEditor14_AddPrimDeleteERKNS_7SdfPathE(ptr noundef nonnull align 8 dereferenceable(200) %0, ptr noundef nonnull align 4 dereferenceable(8) %.0.i)
  ret i1 %12
}